target datalayout = "e-m:e-p270:32:32-p271:32:32-p272:64:64-i64:64-i128:128-f80:128-n8:16:32:64-S128"
target triple = "x86_64-pc-linux-gnu"

; Function Attrs: inlinehint nounwind uwtable
define internal i32 @need_bs_quote(i8 noundef signext %0) #3 {
  %2 = alloca i8, align 1
  store i8 %0, ptr %2, align 1, !tbaa !14
  %3 = load i8, ptr %2, align 1, !tbaa !14
  %4 = sext i8 %3 to i32
  %5 = icmp eq i32 %4, 39
  br i1 %5, label %10, label %6

6:                                                ; preds = %1
  %7 = load i8, ptr %2, align 1, !tbaa !14
  %8 = sext i8 %7 to i32
  %9 = icmp eq i32 %8, 33
  br label %10

10:                                               ; preds = %6, %1
  %11 = phi i1 [ true, %1 ], [ %9, %6 ]
  %12 = zext i1 %11 to i32
  ret i32 %12
}

; Function Attrs: nounwind uwtable
define dso_local ptr @sq_dequote_step(ptr noundef %0, ptr noundef %1) #0 {
  %3 = alloca ptr, align 8
  %4 = alloca ptr, align 8
  %5 = alloca ptr, align 8
  %6 = alloca ptr, align 8
  %7 = alloca ptr, align 8
  %8 = alloca i8, align 1
  %9 = alloca i32, align 4
  store ptr %0, ptr %4, align 8, !tbaa !9
  store ptr %1, ptr %5, align 8, !tbaa !23
  call void @llvm.lifetime.start.p0(i64 8, ptr %6) #9
  %10 = load ptr, ptr %4, align 8, !tbaa !9
  store ptr %10, ptr %6, align 8, !tbaa !9
  call void @llvm.lifetime.start.p0(i64 8, ptr %7) #9
  %11 = load ptr, ptr %4, align 8, !tbaa !9
  store ptr %11, ptr %7, align 8, !tbaa !9
  call void @llvm.lifetime.start.p0(i64 1, ptr %8) #9
  %12 = load ptr, ptr %7, align 8, !tbaa !9
  %13 = load i8, ptr %12, align 1, !tbaa !14
  %14 = sext i8 %13 to i32
  %15 = icmp ne i32 %14, 39
  br i1 %15, label %16, label %17

16:                                               ; preds = %2
  store ptr null, ptr %3, align 8
  store i32 1, ptr %9, align 4
  br label %76

17:                                               ; preds = %2
  br label %18

18:                                               ; preds = %58, %29, %17
  %19 = load ptr, ptr %7, align 8, !tbaa !9
  %20 = getelementptr inbounds nuw i8, ptr %19, i32 1
  store ptr %20, ptr %7, align 8, !tbaa !9
  %21 = load i8, ptr %20, align 1, !tbaa !14
  store i8 %21, ptr %8, align 1, !tbaa !14
  %22 = load i8, ptr %8, align 1, !tbaa !14
  %23 = icmp ne i8 %22, 0
  br i1 %23, label %25, label %24

24:                                               ; preds = %18
  store ptr null, ptr %3, align 8
  store i32 1, ptr %9, align 4
  br label %76

25:                                               ; preds = %18
  %26 = load i8, ptr %8, align 1, !tbaa !14
  %27 = sext i8 %26 to i32
  %28 = icmp ne i32 %27, 39
  br i1 %28, label %29, label %33

29:                                               ; preds = %25
  %30 = load i8, ptr %8, align 1, !tbaa !14
  %31 = load ptr, ptr %6, align 8, !tbaa !9
  %32 = getelementptr inbounds nuw i8, ptr %31, i32 1
  store ptr %32, ptr %6, align 8, !tbaa !9
  store i8 %30, ptr %31, align 1, !tbaa !14
  br label %18

33:                                               ; preds = %25
  %34 = load ptr, ptr %7, align 8, !tbaa !9
  %35 = getelementptr inbounds nuw i8, ptr %34, i32 1
  store ptr %35, ptr %7, align 8, !tbaa !9
  %36 = load i8, ptr %35, align 1, !tbaa !14
  %37 = sext i8 %36 to i32
  switch i32 %37, label %67 [
    i32 0, label %38
    i32 92, label %46
  ]

38:                                               ; preds = %33
  %39 = load ptr, ptr %6, align 8, !tbaa !9
  store i8 0, ptr %39, align 1, !tbaa !14
  %40 = load ptr, ptr %5, align 8, !tbaa !23
  %41 = icmp ne ptr %40, null
  br i1 %41, label %42, label %44

42:                                               ; preds = %38
  %43 = load ptr, ptr %5, align 8, !tbaa !23
  store ptr null, ptr %43, align 8, !tbaa !9
  br label %44

44:                                               ; preds = %42, %38
  %45 = load ptr, ptr %4, align 8, !tbaa !9
  store ptr %45, ptr %3, align 8
  store i32 1, ptr %9, align 4
  br label %76

46:                                               ; preds = %33
  %47 = load ptr, ptr %7, align 8, !tbaa !9
  %48 = getelementptr inbounds i8, ptr %47, i64 1
  %49 = load i8, ptr %48, align 1, !tbaa !14
  %50 = call i32 @need_bs_quote(i8 noundef signext %49)
  %51 = icmp ne i32 %50, 0
  br i1 %51, label %52, label %66

52:                                               ; preds = %46
  %53 = load ptr, ptr %7, align 8, !tbaa !9
  %54 = getelementptr inbounds i8, ptr %53, i64 2
  %55 = load i8, ptr %54, align 1, !tbaa !14
  %56 = sext i8 %55 to i32
  %57 = icmp eq i32 %56, 39
  br i1 %57, label %58, label %66

58:                                               ; preds = %52
  %59 = load ptr, ptr %7, align 8, !tbaa !9
  %60 = getelementptr inbounds i8, ptr %59, i64 1
  %61 = load i8, ptr %60, align 1, !tbaa !14
  %62 = load ptr, ptr %6, align 8, !tbaa !9
  %63 = getelementptr inbounds nuw i8, ptr %62, i32 1
  store ptr %63, ptr %6, align 8, !tbaa !9
  store i8 %61, ptr %62, align 1, !tbaa !14
  %64 = load ptr, ptr %7, align 8, !tbaa !9
  %65 = getelementptr inbounds i8, ptr %64, i64 2
  store ptr %65, ptr %7, align 8, !tbaa !9
  br label %18

66:                                               ; preds = %52, %46
  br label %67

67:                                               ; preds = %33, %66
  %68 = load ptr, ptr %5, align 8, !tbaa !23
  %69 = icmp ne ptr %68, null
  br i1 %69, label %71, label %70

70:                                               ; preds = %67
  store ptr null, ptr %3, align 8
  store i32 1, ptr %9, align 4
  br label %76

71:                                               ; preds = %67
  %72 = load ptr, ptr %6, align 8, !tbaa !9
  store i8 0, ptr %72, align 1, !tbaa !14
  %73 = load ptr, ptr %7, align 8, !tbaa !9
  %74 = load ptr, ptr %5, align 8, !tbaa !23
  store ptr %73, ptr %74, align 8, !tbaa !9
  %75 = load ptr, ptr %4, align 8, !tbaa !9
  store ptr %75, ptr %3, align 8
  store i32 1, ptr %9, align 4
  br label %76

76:                                               ; preds = %71, %70, %44, %24, %16
  call void @llvm.lifetime.end.p0(i64 1, ptr %8) #9
  call void @llvm.lifetime.end.p0(i64 8, ptr %7) #9
  call void @llvm.lifetime.end.p0(i64 8, ptr %6) #9
  %77 = load ptr, ptr %3, align 8
  ret ptr %77
}

; Function Attrs: nounwind uwtable
define dso_local ptr @sq_dequote(ptr noundef %0) #0 {
  %2 = alloca ptr, align 8
  store ptr %0, ptr %2, align 8, !tbaa !9
  %3 = load ptr, ptr %2, align 8, !tbaa !9
  %4 = call ptr @sq_dequote_step(ptr noundef %3, ptr noundef null)
  ret ptr %4
}