; Function Attrs: nofree norecurse nosync nounwind memory(argmem: readwrite) uwtable
define dso_local noundef ptr @sq_dequote(ptr noundef %0) local_unnamed_addr #7 {
  %2 = load i8, ptr %0, align 1, !tbaa !13
  %.not.i = icmp eq i8 %2, 39
  br i1 %.not.i, label %.preheader.i, label %sq_dequote_step.exit

.preheader.i:                                     ; preds = %1, %.backedge.i
  %.024.i = phi ptr [ %.024.be.i, %.backedge.i ], [ %0, %1 ]
  %.023.i = phi ptr [ %.023.be.i, %.backedge.i ], [ %0, %1 ]
  %3 = getelementptr inbounds nuw i8, ptr %.023.i, i64 1
  %4 = load i8, ptr %3, align 1, !tbaa !13
  switch i8 %4, label %.backedge.i [
    i8 0, label %sq_dequote_step.exit
    i8 39, label %5
  ]

.backedge.i:                                      ; preds = %12, %.preheader.i
  %storemerge.i = phi i8 [ %4, %.preheader.i ], [ %11, %12 ]
  %.023.be.i = phi ptr [ %3, %.preheader.i ], [ %13, %12 ]
  %.024.be.i = getelementptr inbounds nuw i8, ptr %.024.i, i64 1
  store i8 %storemerge.i, ptr %.024.i, align 1, !tbaa !13
  br label %.preheader.i

5:                                                ; preds = %.preheader.i
  %6 = getelementptr inbounds nuw i8, ptr %.023.i, i64 2
  %7 = load i8, ptr %6, align 1, !tbaa !13
  switch i8 %7, label %sq_dequote_step.exit [
    i8 0, label %8
    i8 92, label %9
  ]

8:                                                ; preds = %5
  store i8 0, ptr %.024.i, align 1, !tbaa !13
  br label %sq_dequote_step.exit

9:                                                ; preds = %5
  %10 = getelementptr inbounds nuw i8, ptr %.023.i, i64 3
  %11 = load i8, ptr %10, align 1, !tbaa !13
  switch i8 %11, label %sq_dequote_step.exit [
    i8 39, label %12
    i8 33, label %12
  ]

12:                                               ; preds = %9, %9
  %13 = getelementptr inbounds nuw i8, ptr %.023.i, i64 4
  %14 = load i8, ptr %13, align 1, !tbaa !13
  %15 = icmp eq i8 %14, 39
  br i1 %15, label %.backedge.i, label %sq_dequote_step.exit

sq_dequote_step.exit:                             ; preds = %5, %9, %12, %.preheader.i, %1, %8
  %.0.i = phi ptr [ null, %1 ], [ %0, %8 ], [ null, %.preheader.i ], [ null, %12 ], [ null, %9 ], [ null, %5 ]
  ret ptr %.0.i
}